; Function Attrs: mustprogress nounwind uwtable
define dso_local noundef zeroext i1 @_ZN5clang4Sema25isDependentScopeSpecifierERKNS_12CXXScopeSpecE(ptr nocapture noundef nonnull readnone align 8 dereferenceable(17560) %0, ptr nocapture noundef nonnull readonly align 8 dereferenceable(48) %1) local_unnamed_addr #0 align 2 {
  %3 = getelementptr inbounds nuw i8, ptr %1, i64 8
  %4 = load ptr, ptr %3, align 8
  %.not = icmp eq ptr %4, null
  br i1 %.not, label %6, label %_ZNK5clang12CXXScopeSpec9isInvalidEv.exit

_ZNK5clang12CXXScopeSpec9isInvalidEv.exit:        ; preds = %2
  %5 = tail call noundef zeroext i1 @_ZNK5clang19NestedNameSpecifier11isDependentEv(ptr noundef nonnull align 8 dereferenceable(24) %4) #15
  br label %6

6:                                                ; preds = %2, %_ZNK5clang12CXXScopeSpec9isInvalidEv.exit
  %.0 = phi i1 [ %5, %_ZNK5clang12CXXScopeSpec9isInvalidEv.exit ], [ false, %2 ]
  ret i1 %.0
}